; Function Attrs: mustprogress uwtable
define void @_ZN5faiss9IndexHNSW13reorder_linksEv(ptr noundef nonnull align 8 dereferenceable(5202) %0) local_unnamed_addr #1 align 2 {
  %2 = alloca i32, align 4
  call void @llvm.lifetime.start.p0(i64 4, ptr nonnull %2) #13
  %3 = getelementptr inbounds nuw i8, ptr %0, i64 40
  %4 = tail call noundef i32 @_ZNK5faiss4HNSW12nb_neighborsEi(ptr noundef nonnull align 8 dereferenceable(5142) %3, i32 noundef 0)
  store i32 %4, ptr %2, align 4, !tbaa !62
  call void (ptr, i32, ptr, ...) @__kmpc_fork_call(ptr nonnull @2, i32 2, ptr nonnull @_ZN5faiss9IndexHNSW13reorder_linksEv.omp_outlined, ptr nonnull %2, ptr nonnull %0)
  call void @llvm.lifetime.end.p0(i64 4, ptr nonnull %2) #13
  ret void
}